; Function Attrs: nounwind uwtable
define i32 @av_hmac_calc(ptr noundef %0, ptr noundef %1, i32 noundef %2, ptr noundef %3, i32 noundef %4, ptr noundef %5, i32 noundef %6) local_unnamed_addr #0 {
  %8 = alloca [128 x i8], align 16
  %9 = alloca [128 x i8], align 16
  call void @llvm.lifetime.start.p0(i64 128, ptr nonnull %9) #6
  %10 = getelementptr inbounds nuw i8, ptr %0, i64 8
  %11 = load i32, ptr %10, align 8, !tbaa !4
  %12 = icmp ugt i32 %4, %11
  br i1 %12, label %13, label %27

13:                                               ; preds = %7
  %14 = getelementptr inbounds nuw i8, ptr %0, i64 32
  %15 = load ptr, ptr %14, align 8, !tbaa !11
  %16 = load ptr, ptr %0, align 8, !tbaa !14
  tail call void %15(ptr noundef %16) #6
  %17 = getelementptr inbounds nuw i8, ptr %0, i64 24
  %18 = load ptr, ptr %17, align 8, !tbaa !12
  %19 = load ptr, ptr %0, align 8, !tbaa !14
  %20 = zext i32 %4 to i64
  tail call void %18(ptr noundef %19, ptr noundef %3, i64 noundef %20) #6
  %21 = getelementptr inbounds nuw i8, ptr %0, i64 16
  %22 = load ptr, ptr %21, align 8, !tbaa !13
  %23 = load ptr, ptr %0, align 8, !tbaa !14
  %24 = getelementptr inbounds nuw i8, ptr %0, i64 40
  tail call void %22(ptr noundef %23, ptr noundef nonnull %24) #6
  %25 = getelementptr inbounds nuw i8, ptr %0, i64 12
  %26 = load i32, ptr %25, align 4, !tbaa !10
  br label %30

27:                                               ; preds = %7
  %28 = getelementptr inbounds nuw i8, ptr %0, i64 40
  %29 = zext i32 %4 to i64
  tail call void @llvm.memcpy.p0.p0.i64(ptr nonnull align 8 %28, ptr align 1 %3, i64 %29, i1 false)
  br label %30

30:                                               ; preds = %27, %13
  %.sink.i = phi i32 [ %26, %13 ], [ %4, %27 ]
  %31 = getelementptr inbounds nuw i8, ptr %0, i64 168
  store i32 %.sink.i, ptr %31, align 8, !tbaa !15
  %32 = getelementptr inbounds nuw i8, ptr %0, i64 32
  %33 = load ptr, ptr %32, align 8, !tbaa !11
  %34 = load ptr, ptr %0, align 8, !tbaa !14
  tail call void %33(ptr noundef %34) #6
  %35 = load i32, ptr %31, align 8, !tbaa !15
  %36 = icmp sgt i32 %35, 0
  br i1 %36, label %.lr.ph.i, label %.preheader.i

.lr.ph.i:                                         ; preds = %30
  %37 = getelementptr inbounds nuw i8, ptr %0, i64 40
  %wide.trip.count.i = zext nneg i32 %35 to i64
  br label %45

.preheader.i:                                     ; preds = %45, %30
  %38 = load i32, ptr %10, align 8, !tbaa !4
  %39 = icmp slt i32 %35, %38
  br i1 %39, label %.lr.ph40.preheader.i, label %av_hmac_init.exit

.lr.ph40.preheader.i:                             ; preds = %.preheader.i
  %40 = sext i32 %35 to i64
  %scevgep.i = getelementptr i8, ptr %9, i64 %40
  %41 = xor i32 %35, -1
  %42 = add i32 %38, %41
  %43 = zext i32 %42 to i64
  %44 = add nuw nsw i64 %43, 1
  call void @llvm.memset.p0.i64(ptr noundef nonnull align 1 dereferenceable(1) %scevgep.i, i8 54, i64 %44, i1 false), !tbaa !16
  br label %av_hmac_init.exit

45:                                               ; preds = %45, %.lr.ph.i
  %indvars.iv.i = phi i64 [ 0, %.lr.ph.i ], [ %indvars.iv.next.i, %45 ]
  %46 = getelementptr inbounds nuw [128 x i8], ptr %37, i64 0, i64 %indvars.iv.i
  %47 = load i8, ptr %46, align 1, !tbaa !16
  %48 = xor i8 %47, 54
  %49 = getelementptr inbounds nuw [128 x i8], ptr %9, i64 0, i64 %indvars.iv.i
  store i8 %48, ptr %49, align 1, !tbaa !16
  %indvars.iv.next.i = add nuw nsw i64 %indvars.iv.i, 1
  %exitcond.not.i = icmp eq i64 %indvars.iv.next.i, %wide.trip.count.i
  br i1 %exitcond.not.i, label %.preheader.i, label %45, !llvm.loop !17

av_hmac_init.exit:                                ; preds = %.preheader.i, %.lr.ph40.preheader.i
  %50 = getelementptr inbounds nuw i8, ptr %0, i64 24
  %51 = load ptr, ptr %50, align 8, !tbaa !12
  %52 = load ptr, ptr %0, align 8, !tbaa !14
  %53 = sext i32 %38 to i64
  call void %51(ptr noundef %52, ptr noundef nonnull %9, i64 noundef %53) #6
  call void @llvm.lifetime.end.p0(i64 128, ptr nonnull %9) #6
  %54 = load ptr, ptr %50, align 8, !tbaa !12
  %55 = load ptr, ptr %0, align 8, !tbaa !14
  %56 = zext i32 %2 to i64
  call void %54(ptr noundef %55, ptr noundef %1, i64 noundef %56) #6
  call void @llvm.lifetime.start.p0(i64 128, ptr nonnull %8) #6
  %57 = getelementptr inbounds nuw i8, ptr %0, i64 12
  %58 = load i32, ptr %57, align 4, !tbaa !10
  %59 = icmp ult i32 %6, %58
  br i1 %59, label %av_hmac_final.exit, label %60

60:                                               ; preds = %av_hmac_init.exit
  %61 = getelementptr inbounds nuw i8, ptr %0, i64 16
  %62 = load ptr, ptr %61, align 8, !tbaa !13
  %63 = load ptr, ptr %0, align 8, !tbaa !14
  call void %62(ptr noundef %63, ptr noundef %5) #6
  %64 = load ptr, ptr %32, align 8, !tbaa !11
  %65 = load ptr, ptr %0, align 8, !tbaa !14
  call void %64(ptr noundef %65) #6
  %66 = load i32, ptr %31, align 8, !tbaa !15
  %67 = icmp sgt i32 %66, 0
  br i1 %67, label %.lr.ph.i10, label %.preheader.i8

.lr.ph.i10:                                       ; preds = %60
  %68 = getelementptr inbounds nuw i8, ptr %0, i64 40
  %wide.trip.count.i11 = zext nneg i32 %66 to i64
  br label %76

.preheader.i8:                                    ; preds = %76, %60
  %69 = load i32, ptr %10, align 8, !tbaa !4
  %70 = icmp slt i32 %66, %69
  br i1 %70, label %.lr.ph35.preheader.i, label %._crit_edge.i

.lr.ph35.preheader.i:                             ; preds = %.preheader.i8
  %71 = sext i32 %66 to i64
  %scevgep.i9 = getelementptr i8, ptr %8, i64 %71
  %72 = xor i32 %66, -1
  %73 = add i32 %69, %72
  %74 = zext i32 %73 to i64
  %75 = add nuw nsw i64 %74, 1
  call void @llvm.memset.p0.i64(ptr noundef nonnull align 1 dereferenceable(1) %scevgep.i9, i8 92, i64 %75, i1 false), !tbaa !16
  br label %._crit_edge.i

76:                                               ; preds = %76, %.lr.ph.i10
  %indvars.iv.i12 = phi i64 [ 0, %.lr.ph.i10 ], [ %indvars.iv.next.i13, %76 ]
  %77 = getelementptr inbounds nuw [128 x i8], ptr %68, i64 0, i64 %indvars.iv.i12
  %78 = load i8, ptr %77, align 1, !tbaa !16
  %79 = xor i8 %78, 92
  %80 = getelementptr inbounds nuw [128 x i8], ptr %8, i64 0, i64 %indvars.iv.i12
  store i8 %79, ptr %80, align 1, !tbaa !16
  %indvars.iv.next.i13 = add nuw nsw i64 %indvars.iv.i12, 1
  %exitcond.not.i14 = icmp eq i64 %indvars.iv.next.i13, %wide.trip.count.i11
  br i1 %exitcond.not.i14, label %.preheader.i8, label %76, !llvm.loop !19

._crit_edge.i:                                    ; preds = %.lr.ph35.preheader.i, %.preheader.i8
  %81 = load ptr, ptr %50, align 8, !tbaa !12
  %82 = load ptr, ptr %0, align 8, !tbaa !14
  %83 = sext i32 %69 to i64
  call void %81(ptr noundef %82, ptr noundef nonnull %8, i64 noundef %83) #6
  %84 = load ptr, ptr %50, align 8, !tbaa !12
  %85 = load ptr, ptr %0, align 8, !tbaa !14
  %86 = load i32, ptr %57, align 4, !tbaa !10
  %87 = sext i32 %86 to i64
  call void %84(ptr noundef %85, ptr noundef %5, i64 noundef %87) #6
  %88 = load ptr, ptr %61, align 8, !tbaa !13
  %89 = load ptr, ptr %0, align 8, !tbaa !14
  call void %88(ptr noundef %89, ptr noundef %5) #6
  %90 = load i32, ptr %57, align 4, !tbaa !10
  br label %av_hmac_final.exit

av_hmac_final.exit:                               ; preds = %av_hmac_init.exit, %._crit_edge.i
  %.029.i = phi i32 [ %90, %._crit_edge.i ], [ -22, %av_hmac_init.exit ]
  call void @llvm.lifetime.end.p0(i64 128, ptr nonnull %8) #6
  ret i32 %.029.i
}